target datalayout = "e-m:e-p270:32:32-p271:32:32-p272:64:64-i64:64-i128:128-f80:128-n8:16:32:64-S128"
target triple = "x86_64-pc-linux-gnu"

; Function Attrs: mustprogress nounwind uwtable
define noundef ptr @_ZN6google8protobuf17FastInt32ToBufferEiPc(i32 noundef %0, ptr noundef %1) #6 {
  %3 = alloca ptr, align 8
  %4 = alloca i32, align 4
  %5 = alloca ptr, align 8
  %6 = alloca ptr, align 8
  %7 = alloca i32, align 4
  store i32 %0, ptr %4, align 4, !tbaa !15
  store ptr %1, ptr %5, align 8, !tbaa !8
  call void @llvm.lifetime.start.p0(i64 8, ptr %6) #3
  %8 = load ptr, ptr %5, align 8, !tbaa !8
  %9 = getelementptr inbounds i8, ptr %8, i64 11
  store ptr %9, ptr %6, align 8, !tbaa !8
  %10 = load ptr, ptr %6, align 8, !tbaa !8
  %11 = getelementptr inbounds i8, ptr %10, i32 -1
  store ptr %11, ptr %6, align 8, !tbaa !8
  store i8 0, ptr %10, align 1, !tbaa !10
  %12 = load i32, ptr %4, align 4, !tbaa !15
  %13 = icmp sge i32 %12, 0
  br i1 %13, label %14, label %30

14:                                               ; preds = %2
  br label %15

15:                                               ; preds = %24, %14
  %16 = load i32, ptr %4, align 4, !tbaa !15
  %17 = srem i32 %16, 10
  %18 = add nsw i32 48, %17
  %19 = trunc i32 %18 to i8
  %20 = load ptr, ptr %6, align 8, !tbaa !8
  %21 = getelementptr inbounds i8, ptr %20, i32 -1
  store ptr %21, ptr %6, align 8, !tbaa !8
  store i8 %19, ptr %20, align 1, !tbaa !10
  %22 = load i32, ptr %4, align 4, !tbaa !15
  %23 = sdiv i32 %22, 10
  store i32 %23, ptr %4, align 4, !tbaa !15
  br label %24

24:                                               ; preds = %15
  %25 = load i32, ptr %4, align 4, !tbaa !15
  %26 = icmp sgt i32 %25, 0
  br i1 %26, label %15, label %27, !llvm.loop !66

27:                                               ; preds = %24
  %28 = load ptr, ptr %6, align 8, !tbaa !8
  %29 = getelementptr inbounds i8, ptr %28, i64 1
  store ptr %29, ptr %3, align 8
  store i32 1, ptr %7, align 4
  br label %72

30:                                               ; preds = %2
  %31 = load i32, ptr %4, align 4, !tbaa !15
  %32 = icmp sgt i32 %31, -10
  br i1 %32, label %33, label %43

33:                                               ; preds = %30
  %34 = load i32, ptr %4, align 4, !tbaa !15
  %35 = sub nsw i32 0, %34
  store i32 %35, ptr %4, align 4, !tbaa !15
  %36 = load i32, ptr %4, align 4, !tbaa !15
  %37 = add nsw i32 48, %36
  %38 = trunc i32 %37 to i8
  %39 = load ptr, ptr %6, align 8, !tbaa !8
  %40 = getelementptr inbounds i8, ptr %39, i32 -1
  store ptr %40, ptr %6, align 8, !tbaa !8
  store i8 %38, ptr %39, align 1, !tbaa !10
  %41 = load ptr, ptr %6, align 8, !tbaa !8
  store i8 45, ptr %41, align 1, !tbaa !10
  %42 = load ptr, ptr %6, align 8, !tbaa !8
  store ptr %42, ptr %3, align 8
  store i32 1, ptr %7, align 4
  br label %72

43:                                               ; preds = %30
  %44 = load i32, ptr %4, align 4, !tbaa !15
  %45 = add nsw i32 %44, 10
  store i32 %45, ptr %4, align 4, !tbaa !15
  %46 = load i32, ptr %4, align 4, !tbaa !15
  %47 = sub nsw i32 0, %46
  store i32 %47, ptr %4, align 4, !tbaa !15
  %48 = load i32, ptr %4, align 4, !tbaa !15
  %49 = srem i32 %48, 10
  %50 = add nsw i32 48, %49
  %51 = trunc i32 %50 to i8
  %52 = load ptr, ptr %6, align 8, !tbaa !8
  %53 = getelementptr inbounds i8, ptr %52, i32 -1
  store ptr %53, ptr %6, align 8, !tbaa !8
  store i8 %51, ptr %52, align 1, !tbaa !10
  %54 = load i32, ptr %4, align 4, !tbaa !15
  %55 = sdiv i32 %54, 10
  %56 = add nsw i32 %55, 1
  store i32 %56, ptr %4, align 4, !tbaa !15
  br label %57

57:                                               ; preds = %66, %43
  %58 = load i32, ptr %4, align 4, !tbaa !15
  %59 = srem i32 %58, 10
  %60 = add nsw i32 48, %59
  %61 = trunc i32 %60 to i8
  %62 = load ptr, ptr %6, align 8, !tbaa !8
  %63 = getelementptr inbounds i8, ptr %62, i32 -1
  store ptr %63, ptr %6, align 8, !tbaa !8
  store i8 %61, ptr %62, align 1, !tbaa !10
  %64 = load i32, ptr %4, align 4, !tbaa !15
  %65 = sdiv i32 %64, 10
  store i32 %65, ptr %4, align 4, !tbaa !15
  br label %66

66:                                               ; preds = %57
  %67 = load i32, ptr %4, align 4, !tbaa !15
  %68 = icmp sgt i32 %67, 0
  br i1 %68, label %57, label %69, !llvm.loop !67

69:                                               ; preds = %66
  %70 = load ptr, ptr %6, align 8, !tbaa !8
  store i8 45, ptr %70, align 1, !tbaa !10
  %71 = load ptr, ptr %6, align 8, !tbaa !8
  store ptr %71, ptr %3, align 8
  store i32 1, ptr %7, align 4
  br label %72

72:                                               ; preds = %69, %33, %27
  call void @llvm.lifetime.end.p0(i64 8, ptr %6) #3
  %73 = load ptr, ptr %3, align 8
  ret ptr %73
}