; Function Attrs: mustprogress nofree norecurse nosync nounwind memory(argmem: write) uwtable
define noundef nonnull ptr @_ZN6google8protobuf17FastInt32ToBufferEiPc(i32 noundef %0, ptr noundef writeonly initializes((11, 12)) %1) local_unnamed_addr #16 {
  %3 = getelementptr inbounds nuw i8, ptr %1, i64 11
  %4 = getelementptr inbounds nuw i8, ptr %1, i64 10
  store i8 0, ptr %3, align 1, !tbaa !11
  %5 = icmp sgt i32 %0, -1
  br i1 %5, label %.preheader, label %11

.preheader:                                       ; preds = %2, %.preheader
  %.026 = phi i32 [ %10, %.preheader ], [ %0, %2 ]
  %.0 = phi ptr [ %9, %.preheader ], [ %4, %2 ]
  %6 = urem i32 %.026, 10
  %7 = trunc nuw nsw i32 %6 to i8
  %8 = or disjoint i8 %7, 48
  %9 = getelementptr inbounds i8, ptr %.0, i64 -1
  store i8 %8, ptr %.0, align 1, !tbaa !11
  %10 = udiv i32 %.026, 10
  %.not30 = icmp samesign ult i32 %.026, 10
  br i1 %.not30, label %.loopexit, label %.preheader, !llvm.loop !69

11:                                               ; preds = %2
  %12 = icmp samesign ugt i32 %0, -10
  br i1 %12, label %13, label %17

13:                                               ; preds = %11
  %14 = trunc i32 %0 to i8
  %15 = sub nsw i8 48, %14
  %16 = getelementptr inbounds nuw i8, ptr %1, i64 9
  store i8 %15, ptr %4, align 1, !tbaa !11
  store i8 45, ptr %16, align 1, !tbaa !11
  br label %.loopexit

17:                                               ; preds = %11
  %18 = sub nuw nsw i32 -10, %0
  %19 = urem i32 %18, 10
  %20 = trunc nuw nsw i32 %19 to i8
  %21 = or disjoint i8 %20, 48
  %22 = getelementptr inbounds nuw i8, ptr %1, i64 9
  store i8 %21, ptr %4, align 1, !tbaa !11
  %23 = udiv i32 %18, 10
  %24 = add nuw nsw i32 %23, 1
  br label %25

25:                                               ; preds = %25, %17
  %.127 = phi i32 [ %24, %17 ], [ %30, %25 ]
  %.1 = phi ptr [ %22, %17 ], [ %29, %25 ]
  %26 = urem i32 %.127, 10
  %27 = trunc nuw nsw i32 %26 to i8
  %28 = or disjoint i8 %27, 48
  %29 = getelementptr inbounds i8, ptr %.1, i64 -1
  store i8 %28, ptr %.1, align 1, !tbaa !11
  %30 = udiv i32 %.127, 10
  %.not = icmp samesign ult i32 %.127, 10
  br i1 %.not, label %31, label %25, !llvm.loop !70

31:                                               ; preds = %25
  store i8 45, ptr %29, align 1, !tbaa !11
  br label %.loopexit

.loopexit:                                        ; preds = %.preheader, %31, %13
  %.025 = phi ptr [ %16, %13 ], [ %29, %31 ], [ %.0, %.preheader ]
  ret ptr %.025
}